(lp0
(S'cppflags'
p1
ccopy_reg
_reconstructor
p2
(cino.utils
SpaceList
p3
c__builtin__
list
p4
(lp5
S'-mmcu=atmega328p'
p6
aS'-DF_CPU=16000000L'
p7
aS'-DARDUINO=105'
p8
aS'-I/usr/share/arduino/hardware/arduino/cores/arduino'
p9
aS'-ffunction-sections'
p10
aS'-fdata-sections'
p11
aS'-g'
p12
aS'-Os'
p13
aS'-w'
p14
aS'-I/usr/share/arduino/hardware/arduino/variants/standard'
p15
atp16
Rp17
tp18
a(S'arduino_variants_dir'
p19
S'/usr/share/arduino/hardware/arduino/variants'
p20
tp21
a(S'version.txt'
p22
S'/usr/share/arduino/lib/version.txt'
p23
tp24
a(S'used_libs'
p25
(lp26
tp27
a(S'cc'
p28
S'/usr/share/arduino/hardware/tools/avr/bin/avr-gcc'
p29
tp30
a(S'make'
p31
S'/usr/share/arduino/hardware/tools/avr/bin/make'
p32
tp33
a(S'cflags'
p34
g2
(g3
g4
(lp35
tp36
Rp37
tp38
a(S'build_dir'
p39
S'.build/uno'
p40
tp41
a(S'arduino_core_dir'
p42
S'/usr/share/arduino/hardware/arduino/cores/arduino'
p43
tp44
a(S'boards.txt'
p45
S'/usr/share/arduino/hardware/arduino/boards.txt'
p46
tp47
a(S'cxxflags'
p48
g2
(g3
g4
(lp49
S'-fno-exceptions'
p50
atp51
Rp52
tp53
a(S'cxx'
p54
S'/usr/share/arduino/hardware/tools/avr/bin/avr-g++'
p55
tp56
a(S'ar'
p57
S'/usr/share/arduino/hardware/tools/avr/bin/avr-ar'
p58
tp59
a(S'names'
p60
(dp61
S'cpp'
p62
S'%s.cpp'
p63
sS'obj'
p64
S'%s.o'
p65
sS'deps'
p66
S'%s.d'
p67
sS'lib'
p68
S'lib%s.a'
p69
stp70
a(S'deps'
p71
g2
(g3
g4
(lp72
S'.build/uno/src/dependencies.d'
p73
atp74
Rp75
tp76
a(S'arduino_libraries_dir'
p77
S'/usr/share/arduino/libraries'
p78
tp79
a(S'arduino_lib_version'
p80
g2
(cino.environment
Version
p81
c__builtin__
tuple
p82
(I1
I0
I5
tp83
tp84
Rp85
tp86
a(S'objcopy'
p87
S'/usr/share/arduino/hardware/tools/avr/bin/avr-objcopy'
p88
tp89
a(S'board_models'
p90
cino.environment
BoardModels
p91
((lp92
(lp93
S'uno'
p94
a(dp95
S'bootloader'
p96
(dp97
S'extended_fuses'
p98
S'0x05'
p99
sS'high_fuses'
p100
S'0xde'
p101
sS'low_fuses'
p102
S'0xff'
p103
sS'lock_bits'
p104
S'0x0F'
p105
sS'file'
p106
S'optiboot_atmega328.hex'
p107
sS'path'
p108
S'optiboot'
p109
sS'unlock_bits'
p110
S'0x3F'
p111
ssS'upload'
p112
(dp113
S'protocol'
p114
S'arduino'
p115
sS'maximum_size'
p116
S'32256'
p117
sS'speed'
p118
S'115200'
p119
ssS'build'
p120
(dp121
S'core'
p122
S'arduino'
p123
sS'mcu'
p124
S'atmega328p'
p125
sS'f_cpu'
p126
S'16000000L'
p127
sS'variant'
p128
S'standard'
p129
ssS'name'
p130
S'Arduino Uno'
p131
saa(lp132
S'atmega328'
p133
a(dp134
S'bootloader'
p135
(dp136
S'extended_fuses'
p137
S'0x05'
p138
sS'high_fuses'
p139
S'0xDA'
p140
sS'low_fuses'
p141
S'0xFF'
p142
sS'lock_bits'
p143
S'0x0F'
p144
sS'file'
p145
S'ATmegaBOOT_168_atmega328.hex'
p146
sS'path'
p147
S'atmega'
p148
sS'unlock_bits'
p149
S'0x3F'
p150
ssS'upload'
p151
(dp152
S'protocol'
p153
S'arduino'
p154
sS'maximum_size'
p155
S'30720'
p156
sS'speed'
p157
S'57600'
p158
ssS'build'
p159
(dp160
S'core'
p161
S'arduino'
p162
sS'mcu'
p163
S'atmega328p'
p164
sS'f_cpu'
p165
S'16000000L'
p166
sS'variant'
p167
S'standard'
p168
ssS'name'
p169
S'Arduino Duemilanove w/ ATmega328'
p170
saa(lp171
S'diecimila'
p172
a(dp173
S'bootloader'
p174
(dp175
S'extended_fuses'
p176
S'0x00'
p177
sS'high_fuses'
p178
S'0xdd'
p179
sS'low_fuses'
p180
S'0xff'
p181
sS'lock_bits'
p182
S'0x0F'
p183
sS'file'
p184
S'ATmegaBOOT_168_diecimila.hex'
p185
sS'path'
p186
S'atmega'
p187
sS'unlock_bits'
p188
S'0x3F'
p189
ssS'upload'
p190
(dp191
S'protocol'
p192
S'arduino'
p193
sS'maximum_size'
p194
S'14336'
p195
sS'speed'
p196
S'19200'
p197
ssS'build'
p198
(dp199
S'core'
p200
S'arduino'
p201
sS'mcu'
p202
S'atmega168'
p203
sS'f_cpu'
p204
S'16000000L'
p205
sS'variant'
p206
S'standard'
p207
ssS'name'
p208
S'Arduino Diecimila or Duemilanove w/ ATmega168'
p209
saa(lp210
S'nano328'
p211
a(dp212
S'bootloader'
p213
(dp214
S'extended_fuses'
p215
S'0x05'
p216
sS'high_fuses'
p217
S'0xDA'
p218
sS'low_fuses'
p219
S'0xFF'
p220
sS'lock_bits'
p221
S'0x0F'
p222
sS'file'
p223
S'ATmegaBOOT_168_atmega328.hex'
p224
sS'path'
p225
S'atmega'
p226
sS'unlock_bits'
p227
S'0x3F'
p228
ssS'upload'
p229
(dp230
S'protocol'
p231
S'arduino'
p232
sS'maximum_size'
p233
S'30720'
p234
sS'speed'
p235
S'57600'
p236
ssS'build'
p237
(dp238
S'core'
p239
S'arduino'
p240
sS'mcu'
p241
S'atmega328p'
p242
sS'f_cpu'
p243
S'16000000L'
p244
sS'variant'
p245
S'eightanaloginputs'
p246
ssS'name'
p247
S'Arduino Nano w/ ATmega328'
p248
saa(lp249
S'nano'
p250
a(dp251
S'bootloader'
p252
(dp253
S'extended_fuses'
p254
S'0x00'
p255
sS'high_fuses'
p256
S'0xdd'
p257
sS'low_fuses'
p258
S'0xff'
p259
sS'lock_bits'
p260
S'0x0F'
p261
sS'file'
p262
S'ATmegaBOOT_168_diecimila.hex'
p263
sS'path'
p264
S'atmega'
p265
sS'unlock_bits'
p266
S'0x3F'
p267
ssS'upload'
p268
(dp269
S'protocol'
p270
S'arduino'
p271
sS'maximum_size'
p272
S'14336'
p273
sS'speed'
p274
S'19200'
p275
ssS'build'
p276
(dp277
S'core'
p278
S'arduino'
p279
sS'mcu'
p280
S'atmega168'
p281
sS'f_cpu'
p282
S'16000000L'
p283
sS'variant'
p284
S'eightanaloginputs'
p285
ssS'name'
p286
S'Arduino Nano w/ ATmega168'
p287
saa(lp288
S'mega2560'
p289
a(dp290
S'bootloader'
p291
(dp292
S'extended_fuses'
p293
S'0xFD'
p294
sS'high_fuses'
p295
S'0xD8'
p296
sS'low_fuses'
p297
S'0xFF'
p298
sS'lock_bits'
p299
S'0x0F'
p300
sS'file'
p301
S'stk500boot_v2_mega2560.hex'
p302
sS'path'
p303
S'stk500v2'
p304
sS'unlock_bits'
p305
S'0x3F'
p306
ssS'upload'
p307
(dp308
S'protocol'
p309
S'wiring'
p310
sS'maximum_size'
p311
S'258048'
p312
sS'speed'
p313
S'115200'
p314
ssS'build'
p315
(dp316
S'core'
p317
S'arduino'
p318
sS'mcu'
p319
S'atmega2560'
p320
sS'f_cpu'
p321
S'16000000L'
p322
sS'variant'
p323
S'mega'
p324
ssS'name'
p325
S'Arduino Mega 2560 or Mega ADK'
p326
saa(lp327
S'mega'
p328
a(dp329
S'bootloader'
p330
(dp331
S'extended_fuses'
p332
S'0xF5'
p333
sS'high_fuses'
p334
S'0xDA'
p335
sS'low_fuses'
p336
S'0xFF'
p337
sS'lock_bits'
p338
S'0x0F'
p339
sS'file'
p340
S'ATmegaBOOT_168_atmega1280.hex'
p341
sS'path'
p342
S'atmega'
p343
sS'unlock_bits'
p344
S'0x3F'
p345
ssS'upload'
p346
(dp347
S'protocol'
p348
S'arduino'
p349
sS'maximum_size'
p350
S'126976'
p351
sS'speed'
p352
S'57600'
p353
ssS'build'
p354
(dp355
S'core'
p356
S'arduino'
p357
sS'mcu'
p358
S'atmega1280'
p359
sS'f_cpu'
p360
S'16000000L'
p361
sS'variant'
p362
S'mega'
p363
ssS'name'
p364
S'Arduino Mega (ATmega1280)'
p365
saa(lp366
S'leonardo'
p367
a(dp368
S'bootloader'
p369
(dp370
S'extended_fuses'
p371
S'0xcb'
p372
sS'high_fuses'
p373
S'0xd8'
p374
sS'low_fuses'
p375
S'0xff'
p376
sS'lock_bits'
p377
S'0x2F'
p378
sS'file'
p379
S'Caterina-Leonardo.hex'
p380
sS'path'
p381
S'caterina'
p382
sS'unlock_bits'
p383
S'0x3F'
p384
ssS'upload'
p385
(dp386
S'protocol'
p387
S'avr109'
p388
sS'maximum_size'
p389
S'28672'
p390
sS'speed'
p391
S'57600'
p392
sS'disable_flushing'
p393
S'true'
p394
ssS'build'
p395
(dp396
S'core'
p397
S'arduino'
p398
sS'f_cpu'
p399
S'16000000L'
p400
sS'vid'
p401
S'0x2341'
p402
sS'pid'
p403
S'0x8036'
p404
sS'variant'
p405
S'leonardo'
p406
sS'mcu'
p407
S'atmega32u4'
p408
ssS'name'
p409
S'Arduino Leonardo'
p410
saa(lp411
S'esplora'
p412
a(dp413
S'bootloader'
p414
(dp415
S'extended_fuses'
p416
S'0xcb'
p417
sS'high_fuses'
p418
S'0xd8'
p419
sS'low_fuses'
p420
S'0xff'
p421
sS'lock_bits'
p422
S'0x2F'
p423
sS'file'
p424
S'Caterina-Esplora.hex'
p425
sS'path'
p426
S'caterina'
p427
sS'unlock_bits'
p428
S'0x3F'
p429
ssS'upload'
p430
(dp431
S'protocol'
p432
S'avr109'
p433
sS'maximum_size'
p434
S'28672'
p435
sS'speed'
p436
S'57600'
p437
sS'disable_flushing'
p438
S'true'
p439
ssS'build'
p440
(dp441
S'core'
p442
S'arduino'
p443
sS'f_cpu'
p444
S'16000000L'
p445
sS'vid'
p446
S'0x2341'
p447
sS'pid'
p448
S'0x803C'
p449
sS'variant'
p450
S'leonardo'
p451
sS'mcu'
p452
S'atmega32u4'
p453
ssS'name'
p454
S'Arduino Esplora'
p455
saa(lp456
S'micro'
p457
a(dp458
S'bootloader'
p459
(dp460
S'extended_fuses'
p461
S'0xcb'
p462
sS'high_fuses'
p463
S'0xd8'
p464
sS'low_fuses'
p465
S'0xff'
p466
sS'lock_bits'
p467
S'0x2F'
p468
sS'file'
p469
S'Caterina-Micro.hex'
p470
sS'path'
p471
S'caterina'
p472
sS'unlock_bits'
p473
S'0x3F'
p474
ssS'upload'
p475
(dp476
S'protocol'
p477
S'avr109'
p478
sS'maximum_size'
p479
S'28672'
p480
sS'speed'
p481
S'57600'
p482
sS'disable_flushing'
p483
S'true'
p484
ssS'build'
p485
(dp486
S'core'
p487
S'arduino'
p488
sS'f_cpu'
p489
S'16000000L'
p490
sS'vid'
p491
S'0x2341'
p492
sS'pid'
p493
S'0x8037'
p494
sS'variant'
p495
S'micro'
p496
sS'mcu'
p497
S'atmega32u4'
p498
ssS'name'
p499
S'Arduino Micro'
p500
saa(lp501
S'mini328'
p502
a(dp503
S'bootloader'
p504
(dp505
S'extended_fuses'
p506
S'0x05'
p507
sS'high_fuses'
p508
S'0xd8'
p509
sS'low_fuses'
p510
S'0xff'
p511
sS'lock_bits'
p512
S'0x0F'
p513
sS'file'
p514
S'optiboot_atmega328-Mini.hex'
p515
sS'path'
p516
S'optiboot'
p517
sS'unlock_bits'
p518
S'0x3F'
p519
ssS'upload'
p520
(dp521
S'protocol'
p522
S'arduino'
p523
sS'maximum_size'
p524
S'28672'
p525
sS'speed'
p526
S'115200'
p527
ssS'build'
p528
(dp529
S'core'
p530
S'arduino'
p531
sS'mcu'
p532
S'atmega328p'
p533
sS'f_cpu'
p534
S'16000000L'
p535
sS'variant'
p536
S'eightanaloginputs'
p537
ssS'name'
p538
S'Arduino Mini w/ ATmega328'
p539
saa(lp540
S'mini'
p541
a(dp542
S'bootloader'
p543
(dp544
S'extended_fuses'
p545
S'0x00'
p546
sS'high_fuses'
p547
S'0xdd'
p548
sS'low_fuses'
p549
S'0xff'
p550
sS'lock_bits'
p551
S'0x0F'
p552
sS'file'
p553
S'ATmegaBOOT_168_ng.hex'
p554
sS'path'
p555
S'atmega'
p556
sS'unlock_bits'
p557
S'0x3F'
p558
ssS'upload'
p559
(dp560
S'protocol'
p561
S'arduino'
p562
sS'maximum_size'
p563
S'14336'
p564
sS'speed'
p565
S'19200'
p566
ssS'build'
p567
(dp568
S'core'
p569
S'arduino'
p570
sS'mcu'
p571
S'atmega168'
p572
sS'f_cpu'
p573
S'16000000L'
p574
sS'variant'
p575
S'eightanaloginputs'
p576
ssS'name'
p577
S'Arduino Mini w/ ATmega168'
p578
saa(lp579
S'ethernet'
p580
a(dp581
S'bootloader'
p582
(dp583
S'extended_fuses'
p584
S'0x05'
p585
sS'high_fuses'
p586
S'0xde'
p587
sS'low_fuses'
p588
S'0xff'
p589
sS'lock_bits'
p590
S'0x0F'
p591
sS'file'
p592
S'optiboot_atmega328.hex'
p593
sS'path'
p594
S'optiboot'
p595
sS'unlock_bits'
p596
S'0x3F'
p597
ssS'upload'
p598
(dp599
S'protocol'
p600
S'arduino'
p601
sS'maximum_size'
p602
S'32256'
p603
sS'speed'
p604
S'115200'
p605
ssS'build'
p606
(dp607
S'variant'
p608
S'standard'
p609
sS'mcu'
p610
S'atmega328p'
p611
sS'f_cpu'
p612
S'16000000L'
p613
sS'core'
p614
S'arduino'
p615
ssS'name'
p616
S'Arduino Ethernet'
p617
saa(lp618
S'fio'
p619
a(dp620
S'bootloader'
p621
(dp622
S'extended_fuses'
p623
S'0x05'
p624
sS'high_fuses'
p625
S'0xDA'
p626
sS'low_fuses'
p627
S'0xFF'
p628
sS'lock_bits'
p629
S'0x0F'
p630
sS'file'
p631
S'ATmegaBOOT_168_atmega328_pro_8MHz.hex'
p632
sS'path'
p633
S'arduino:atmega'
p634
sS'unlock_bits'
p635
S'0x3F'
p636
ssS'upload'
p637
(dp638
S'protocol'
p639
S'arduino'
p640
sS'maximum_size'
p641
S'30720'
p642
sS'speed'
p643
S'57600'
p644
ssS'build'
p645
(dp646
S'core'
p647
S'arduino'
p648
sS'mcu'
p649
S'atmega328p'
p650
sS'f_cpu'
p651
S'8000000L'
p652
sS'variant'
p653
S'eightanaloginputs'
p654
ssS'name'
p655
S'Arduino Fio'
p656
saa(lp657
S'bt328'
p658
a(dp659
S'bootloader'
p660
(dp661
S'extended_fuses'
p662
S'0x05'
p663
sS'high_fuses'
p664
S'0xd8'
p665
sS'low_fuses'
p666
S'0xff'
p667
sS'lock_bits'
p668
S'0x0F'
p669
sS'file'
p670
S'ATmegaBOOT_168_atmega328_bt.hex'
p671
sS'path'
p672
S'bt'
p673
sS'unlock_bits'
p674
S'0x3F'
p675
ssS'upload'
p676
(dp677
S'protocol'
p678
S'arduino'
p679
sS'maximum_size'
p680
S'28672'
p681
sS'speed'
p682
S'19200'
p683
sS'disable_flushing'
p684
S'true'
p685
ssS'build'
p686
(dp687
S'core'
p688
S'arduino'
p689
sS'mcu'
p690
S'atmega328p'
p691
sS'f_cpu'
p692
S'16000000L'
p693
sS'variant'
p694
S'eightanaloginputs'
p695
ssS'name'
p696
S'Arduino BT w/ ATmega328'
p697
saa(lp698
S'bt'
p699
a(dp700
S'bootloader'
p701
(dp702
S'extended_fuses'
p703
S'0x00'
p704
sS'high_fuses'
p705
S'0xdd'
p706
sS'low_fuses'
p707
S'0xff'
p708
sS'lock_bits'
p709
S'0x0F'
p710
sS'file'
p711
S'ATmegaBOOT_168.hex'
p712
sS'path'
p713
S'bt'
p714
sS'unlock_bits'
p715
S'0x3F'
p716
ssS'upload'
p717
(dp718
S'protocol'
p719
S'arduino'
p720
sS'maximum_size'
p721
S'14336'
p722
sS'speed'
p723
S'19200'
p724
sS'disable_flushing'
p725
S'true'
p726
ssS'build'
p727
(dp728
S'core'
p729
S'arduino'
p730
sS'mcu'
p731
S'atmega168'
p732
sS'f_cpu'
p733
S'16000000L'
p734
sS'variant'
p735
S'eightanaloginputs'
p736
ssS'name'
p737
S'Arduino BT w/ ATmega168'
p738
saa(lp739
S'LilyPadUSB'
p740
a(dp741
S'bootloader'
p742
(dp743
S'extended_fuses'
p744
S'0xce'
p745
sS'high_fuses'
p746
S'0xd8'
p747
sS'low_fuses'
p748
S'0xff'
p749
sS'lock_bits'
p750
S'0x2F'
p751
sS'file'
p752
S'Caterina-LilyPadUSB.hex'
p753
sS'path'
p754
S'caterina-LilyPadUSB'
p755
sS'unlock_bits'
p756
S'0x3F'
p757
ssS'upload'
p758
(dp759
S'protocol'
p760
S'avr109'
p761
sS'maximum_size'
p762
S'28672'
p763
sS'speed'
p764
S'57600'
p765
sS'disable_flushing'
p766
S'true'
p767
ssS'build'
p768
(dp769
S'core'
p770
S'arduino'
p771
sS'f_cpu'
p772
S'8000000L'
p773
sS'vid'
p774
S'0x1B4F'
p775
sS'pid'
p776
S'0x9208'
p777
sS'variant'
p778
S'leonardo'
p779
sS'mcu'
p780
S'atmega32u4'
p781
ssS'name'
p782
S'LilyPad Arduino USB'
p783
saa(lp784
S'lilypad328'
p785
a(dp786
S'bootloader'
p787
(dp788
S'extended_fuses'
p789
S'0x05'
p790
sS'high_fuses'
p791
S'0xDA'
p792
sS'low_fuses'
p793
S'0xFF'
p794
sS'lock_bits'
p795
S'0x0F'
p796
sS'file'
p797
S'ATmegaBOOT_168_atmega328_pro_8MHz.hex'
p798
sS'path'
p799
S'atmega'
p800
sS'unlock_bits'
p801
S'0x3F'
p802
ssS'upload'
p803
(dp804
S'protocol'
p805
S'arduino'
p806
sS'maximum_size'
p807
S'30720'
p808
sS'speed'
p809
S'57600'
p810
ssS'build'
p811
(dp812
S'core'
p813
S'arduino'
p814
sS'mcu'
p815
S'atmega328p'
p816
sS'f_cpu'
p817
S'8000000L'
p818
sS'variant'
p819
S'standard'
p820
ssS'name'
p821
S'LilyPad Arduino w/ ATmega328'
p822
saa(lp823
S'lilypad'
p824
a(dp825
S'bootloader'
p826
(dp827
S'extended_fuses'
p828
S'0x00'
p829
sS'high_fuses'
p830
S'0xdd'
p831
sS'low_fuses'
p832
S'0xe2'
p833
sS'lock_bits'
p834
S'0x0F'
p835
sS'file'
p836
S'LilyPadBOOT_168.hex'
p837
sS'path'
p838
S'lilypad'
p839
sS'unlock_bits'
p840
S'0x3F'
p841
ssS'upload'
p842
(dp843
S'protocol'
p844
S'arduino'
p845
sS'maximum_size'
p846
S'14336'
p847
sS'speed'
p848
S'19200'
p849
ssS'build'
p850
(dp851
S'core'
p852
S'arduino'
p853
sS'mcu'
p854
S'atmega168'
p855
sS'f_cpu'
p856
S'8000000L'
p857
sS'variant'
p858
S'standard'
p859
ssS'name'
p860
S'LilyPad Arduino w/ ATmega168'
p861
saa(lp862
S'pro5v328'
p863
a(dp864
S'bootloader'
p865
(dp866
S'extended_fuses'
p867
S'0x05'
p868
sS'high_fuses'
p869
S'0xDA'
p870
sS'low_fuses'
p871
S'0xFF'
p872
sS'lock_bits'
p873
S'0x0F'
p874
sS'file'
p875
S'ATmegaBOOT_168_atmega328.hex'
p876
sS'path'
p877
S'atmega'
p878
sS'unlock_bits'
p879
S'0x3F'
p880
ssS'upload'
p881
(dp882
S'protocol'
p883
S'arduino'
p884
sS'maximum_size'
p885
S'30720'
p886
sS'speed'
p887
S'57600'
p888
ssS'build'
p889
(dp890
S'core'
p891
S'arduino'
p892
sS'mcu'
p893
S'atmega328p'
p894
sS'f_cpu'
p895
S'16000000L'
p896
sS'variant'
p897
S'standard'
p898
ssS'name'
p899
S'Arduino Pro or Pro Mini (5V, 16 MHz) w/ ATmega328'
p900
saa(lp901
S'pro5v'
p902
a(dp903
S'bootloader'
p904
(dp905
S'extended_fuses'
p906
S'0x00'
p907
sS'high_fuses'
p908
S'0xdd'
p909
sS'low_fuses'
p910
S'0xff'
p911
sS'lock_bits'
p912
S'0x0F'
p913
sS'file'
p914
S'ATmegaBOOT_168_diecimila.hex'
p915
sS'path'
p916
S'atmega'
p917
sS'unlock_bits'
p918
S'0x3F'
p919
ssS'upload'
p920
(dp921
S'protocol'
p922
S'arduino'
p923
sS'maximum_size'
p924
S'14336'
p925
sS'speed'
p926
S'19200'
p927
ssS'build'
p928
(dp929
S'core'
p930
S'arduino'
p931
sS'mcu'
p932
S'atmega168'
p933
sS'f_cpu'
p934
S'16000000L'
p935
sS'variant'
p936
S'standard'
p937
ssS'name'
p938
S'Arduino Pro or Pro Mini (5V, 16 MHz) w/ ATmega168'
p939
saa(lp940
S'pro328'
p941
a(dp942
S'bootloader'
p943
(dp944
S'extended_fuses'
p945
S'0x05'
p946
sS'high_fuses'
p947
S'0xDA'
p948
sS'low_fuses'
p949
S'0xFF'
p950
sS'lock_bits'
p951
S'0x0F'
p952
sS'file'
p953
S'ATmegaBOOT_168_atmega328_pro_8MHz.hex'
p954
sS'path'
p955
S'atmega'
p956
sS'unlock_bits'
p957
S'0x3F'
p958
ssS'upload'
p959
(dp960
S'protocol'
p961
S'arduino'
p962
sS'maximum_size'
p963
S'30720'
p964
sS'speed'
p965
S'57600'
p966
ssS'build'
p967
(dp968
S'core'
p969
S'arduino'
p970
sS'mcu'
p971
S'atmega328p'
p972
sS'f_cpu'
p973
S'8000000L'
p974
sS'variant'
p975
S'standard'
p976
ssS'name'
p977
S'Arduino Pro or Pro Mini (3.3V, 8 MHz) w/ ATmega328'
p978
saa(lp979
S'pro'
p980
a(dp981
S'bootloader'
p982
(dp983
S'extended_fuses'
p984
S'0x00'
p985
sS'high_fuses'
p986
S'0xdd'
p987
sS'low_fuses'
p988
S'0xc6'
p989
sS'lock_bits'
p990
S'0x0F'
p991
sS'file'
p992
S'ATmegaBOOT_168_pro_8MHz.hex'
p993
sS'path'
p994
S'atmega'
p995
sS'unlock_bits'
p996
S'0x3F'
p997
ssS'upload'
p998
(dp999
S'protocol'
p1000
S'arduino'
p1001
sS'maximum_size'
p1002
S'14336'
p1003
sS'speed'
p1004
S'19200'
p1005
ssS'build'
p1006
(dp1007
S'core'
p1008
S'arduino'
p1009
sS'mcu'
p1010
S'atmega168'
p1011
sS'f_cpu'
p1012
S'8000000L'
p1013
sS'variant'
p1014
S'standard'
p1015
ssS'name'
p1016
S'Arduino Pro or Pro Mini (3.3V, 8 MHz) w/ ATmega168'
p1017
saa(lp1018
S'atmega168'
p1019
a(dp1020
S'bootloader'
p1021
(dp1022
S'extended_fuses'
p1023
S'0x00'
p1024
sS'high_fuses'
p1025
S'0xdd'
p1026
sS'low_fuses'
p1027
S'0xff'
p1028
sS'lock_bits'
p1029
S'0x0F'
p1030
sS'file'
p1031
S'ATmegaBOOT_168_ng.hex'
p1032
sS'path'
p1033
S'atmega'
p1034
sS'unlock_bits'
p1035
S'0x3F'
p1036
ssS'upload'
p1037
(dp1038
S'protocol'
p1039
S'arduino'
p1040
sS'maximum_size'
p1041
S'14336'
p1042
sS'speed'
p1043
S'19200'
p1044
ssS'build'
p1045
(dp1046
S'core'
p1047
S'arduino'
p1048
sS'mcu'
p1049
S'atmega168'
p1050
sS'f_cpu'
p1051
S'16000000L'
p1052
sS'variant'
p1053
S'standard'
p1054
ssS'name'
p1055
S'Arduino NG or older w/ ATmega168'
p1056
saa(lp1057
S'atmega8'
p1058
a(dp1059
S'bootloader'
p1060
(dp1061
S'high_fuses'
p1062
S'0xca'
p1063
sS'low_fuses'
p1064
S'0xdf'
p1065
sS'lock_bits'
p1066
S'0x0F'
p1067
sS'file'
p1068
S'ATmegaBOOT-prod-firmware-2009-11-07.hex'
p1069
sS'path'
p1070
S'atmega8'
p1071
sS'unlock_bits'
p1072
S'0x3F'
p1073
ssS'upload'
p1074
(dp1075
S'protocol'
p1076
S'arduino'
p1077
sS'maximum_size'
p1078
S'7168'
p1079
sS'speed'
p1080
S'19200'
p1081
ssS'build'
p1082
(dp1083
S'core'
p1084
S'arduino'
p1085
sS'mcu'
p1086
S'atmega8'
p1087
sS'f_cpu'
p1088
S'16000000L'
p1089
sS'variant'
p1090
S'standard'
p1091
ssS'name'
p1092
S'Arduino NG or older w/ ATmega8'
p1093
saa(lp1094
S'robotControl'
p1095
a(dp1096
S'bootloader'
p1097
(dp1098
S'extended_fuses'
p1099
S'0xcb'
p1100
sS'high_fuses'
p1101
S'0xd8'
p1102
sS'low_fuses'
p1103
S'0xff'
p1104
sS'lock_bits'
p1105
S'0x2F'
p1106
sS'file'
p1107
S'Caterina-Robot-Control.hex'
p1108
sS'path'
p1109
S'caterina-Arduino_Robot'
p1110
sS'unlock_bits'
p1111
S'0x3F'
p1112
ssS'upload'
p1113
(dp1114
S'protocol'
p1115
S'avr109'
p1116
sS'maximum_size'
p1117
S'28672'
p1118
sS'speed'
p1119
S'57600'
p1120
sS'disable_flushing'
p1121
S'true'
p1122
ssS'build'
p1123
(dp1124
S'core'
p1125
S'robot'
p1126
sS'f_cpu'
p1127
S'16000000L'
p1128
sS'vid'
p1129
S'0x2341'
p1130
sS'pid'
p1131
S'0x8038'
p1132
sS'variant'
p1133
S'robot_control'
p1134
sS'mcu'
p1135
S'atmega32u4'
p1136
ssS'name'
p1137
S'Arduino Robot Control'
p1138
saa(lp1139
S'robotMotor'
p1140
a(dp1141
S'bootloader'
p1142
(dp1143
S'extended_fuses'
p1144
S'0xcb'
p1145
sS'high_fuses'
p1146
S'0xd8'
p1147
sS'low_fuses'
p1148
S'0xff'
p1149
sS'lock_bits'
p1150
S'0x2F'
p1151
sS'file'
p1152
S'Caterina-Robot-Motor.hex'
p1153
sS'path'
p1154
S'caterina-Arduino_Robot'
p1155
sS'unlock_bits'
p1156
S'0x3F'
p1157
ssS'upload'
p1158
(dp1159
S'protocol'
p1160
S'avr109'
p1161
sS'maximum_size'
p1162
S'28672'
p1163
sS'speed'
p1164
S'57600'
p1165
sS'disable_flushing'
p1166
S'true'
p1167
ssS'build'
p1168
(dp1169
S'core'
p1170
S'robot'
p1171
sS'f_cpu'
p1172
S'16000000L'
p1173
sS'vid'
p1174
S'0x2341'
p1175
sS'pid'
p1176
S'0x8039'
p1177
sS'variant'
p1178
S'robot_motor'
p1179
sS'mcu'
p1180
S'atmega32u4'
p1181
ssS'name'
p1182
S'Arduino Robot Motor'
p1183
saa(lp1184
S'opti8'
p1185
a(dp1186
S'bootloader'
p1187
(dp1188
S'high_fuses'
p1189
S'0xdc'
p1190
sS'low_fuses'
p1191
S'0xbf'
p1192
sS'lock_bits'
p1193
S'0x0F'
p1194
sS'file'
p1195
S'optiboot_mega8.hex'
p1196
sS'path'
p1197
S'optiboot'
p1198
sS'unlock_bits'
p1199
S'0x3F'
p1200
ssS'upload'
p1201
(dp1202
S'protocol'
p1203
S'arduino'
p1204
sS'maximum_size'
p1205
S'7680'
p1206
sS'speed'
p1207
S'115200'
p1208
ssS'build'
p1209
(dp1210
S'core'
p1211
S'arduino'
p1212
sS'mcu'
p1213
S'atmega8'
p1214
sS'f_cpu'
p1215
S'16000000L'
p1216
sS'variant'
p1217
S'standard'
p1218
ssS'name'
p1219
S'Arduino Optiboot8'
p1220
saatp1221
Rp1222
(dp1223
S'default'
p1224
S'uno'
p1225
sbtp1226
a(S'ldflags'
p1227
g2
(g3
g4
(lp1228
g6
aS'-Wl,-Os'
p1229
aS'-Wl,--gc-sections'
p1230
atp1231
Rp1232
tp1233
a.