(lp0
(S'cppflags'
p1
ccopy_reg
_reconstructor
p2
(cino.utils
SpaceList
p3
c__builtin__
list
p4
(lp5
S'-mmcu=atmega328p'
p6
aS'-DF_CPU=16000000L'
p7
aS'-DARDUINO=100'
p8
aS'-I/usr/share/arduino/hardware/arduino/cores/arduino'
p9
aS'-ffunction-sections'
p10
aS'-fdata-sections'
p11
aS'-g'
p12
aS'-Os'
p13
aS'-w'
p14
aS'-I/usr/share/arduino/hardware/arduino/variants/standard'
p15
aS'-I/usr/share/arduino/hardware/arduino/cores/arduino'
p16
atp17
Rp18
tp19
a(S'cxx'
p20
S'/usr/bin/avr-g++'
p21
tp22
a(S'build_dir'
p23
S'.build/uno'
p24
tp25
a(S'avrdude'
p26
S'/usr/share/arduino/hardware/tools/avrdude'
p27
tp28
a(S'ar'
p29
S'/usr/bin/avr-ar'
p30
tp31
a(S'names'
p32
(dp33
S'cpp'
p34
S'%s.cpp'
p35
sS'obj'
p36
S'%s.o'
p37
sS'lib'
p38
S'lib%s.a'
p39
sS'deps'
p40
S'%s.d'
p41
stp42
a(S'ldflags'
p43
g2
(g3
g4
(lp44
g6
aS'-Wl,-Os'
p45
aS'-Wl,--gc-sections'
p46
atp47
Rp48
tp49
a(S'arduino_lib_version'
p50
g2
(cino.environment
Version
p51
c__builtin__
tuple
p52
(I1
I0
I0
tp53
tp54
Rp55
tp56
a(S'objcopy'
p57
S'/usr/bin/avr-objcopy'
p58
tp59
a(S'board_models'
p60
cino.environment
BoardModels
p61
((lp62
(lp63
S'uno'
p64
a(dp65
S'build'
p66
(dp67
S'core'
p68
S'arduino'
p69
sS'mcu'
p70
S'atmega328p'
p71
sS'f_cpu'
p72
S'16000000L'
p73
sS'variant'
p74
S'standard'
p75
ssS'bootloader'
p76
(dp77
S'extended_fuses'
p78
S'0x05'
p79
sS'high_fuses'
p80
S'0xde'
p81
sS'low_fuses'
p82
S'0xff'
p83
sS'lock_bits'
p84
S'0x0F'
p85
sS'file'
p86
S'optiboot_atmega328.hex'
p87
sS'path'
p88
S'optiboot'
p89
sS'unlock_bits'
p90
S'0x3F'
p91
ssS'upload'
p92
(dp93
S'protocol'
p94
S'arduino'
p95
sS'maximum_size'
p96
S'32256'
p97
sS'speed'
p98
S'115200'
p99
ssS'name'
p100
S'Arduino Uno'
p101
saa(lp102
S'atmega328'
p103
a(dp104
S'build'
p105
(dp106
S'core'
p107
S'arduino'
p108
sS'mcu'
p109
S'atmega328p'
p110
sS'f_cpu'
p111
S'16000000L'
p112
sS'variant'
p113
S'standard'
p114
ssS'bootloader'
p115
(dp116
S'extended_fuses'
p117
S'0x05'
p118
sS'high_fuses'
p119
S'0xDA'
p120
sS'low_fuses'
p121
S'0xFF'
p122
sS'lock_bits'
p123
S'0x0F'
p124
sS'file'
p125
S'ATmegaBOOT_168_atmega328.hex'
p126
sS'path'
p127
S'atmega'
p128
sS'unlock_bits'
p129
S'0x3F'
p130
ssS'upload'
p131
(dp132
S'protocol'
p133
S'arduino'
p134
sS'maximum_size'
p135
S'30720'
p136
sS'speed'
p137
S'57600'
p138
ssS'name'
p139
S'Arduino Duemilanove w/ ATmega328'
p140
saa(lp141
S'diecimila'
p142
a(dp143
S'build'
p144
(dp145
S'core'
p146
S'arduino'
p147
sS'mcu'
p148
S'atmega168'
p149
sS'f_cpu'
p150
S'16000000L'
p151
sS'variant'
p152
S'standard'
p153
ssS'bootloader'
p154
(dp155
S'extended_fuses'
p156
S'0x00'
p157
sS'high_fuses'
p158
S'0xdd'
p159
sS'low_fuses'
p160
S'0xff'
p161
sS'lock_bits'
p162
S'0x0F'
p163
sS'file'
p164
S'ATmegaBOOT_168_diecimila.hex'
p165
sS'path'
p166
S'atmega'
p167
sS'unlock_bits'
p168
S'0x3F'
p169
ssS'upload'
p170
(dp171
S'protocol'
p172
S'arduino'
p173
sS'maximum_size'
p174
S'14336'
p175
sS'speed'
p176
S'19200'
p177
ssS'name'
p178
S'Arduino Diecimila or Duemilanove w/ ATmega168'
p179
saa(lp180
S'nano328'
p181
a(dp182
S'build'
p183
(dp184
S'core'
p185
S'arduino'
p186
sS'mcu'
p187
S'atmega328p'
p188
sS'f_cpu'
p189
S'16000000L'
p190
sS'variant'
p191
S'eightanaloginputs'
p192
ssS'bootloader'
p193
(dp194
S'extended_fuses'
p195
S'0x05'
p196
sS'high_fuses'
p197
S'0xDA'
p198
sS'low_fuses'
p199
S'0xFF'
p200
sS'lock_bits'
p201
S'0x0F'
p202
sS'file'
p203
S'ATmegaBOOT_168_atmega328.hex'
p204
sS'path'
p205
S'atmega'
p206
sS'unlock_bits'
p207
S'0x3F'
p208
ssS'upload'
p209
(dp210
S'protocol'
p211
S'arduino'
p212
sS'maximum_size'
p213
S'30720'
p214
sS'speed'
p215
S'57600'
p216
ssS'name'
p217
S'Arduino Nano w/ ATmega328'
p218
saa(lp219
S'nano'
p220
a(dp221
S'build'
p222
(dp223
S'core'
p224
S'arduino'
p225
sS'mcu'
p226
S'atmega168'
p227
sS'f_cpu'
p228
S'16000000L'
p229
sS'variant'
p230
S'eightanaloginputs'
p231
ssS'bootloader'
p232
(dp233
S'extended_fuses'
p234
S'0x00'
p235
sS'high_fuses'
p236
S'0xdd'
p237
sS'low_fuses'
p238
S'0xff'
p239
sS'lock_bits'
p240
S'0x0F'
p241
sS'file'
p242
S'ATmegaBOOT_168_diecimila.hex'
p243
sS'path'
p244
S'atmega'
p245
sS'unlock_bits'
p246
S'0x3F'
p247
ssS'upload'
p248
(dp249
S'protocol'
p250
S'arduino'
p251
sS'maximum_size'
p252
S'14336'
p253
sS'speed'
p254
S'19200'
p255
ssS'name'
p256
S'Arduino Nano w/ ATmega168'
p257
saa(lp258
S'mega2560'
p259
a(dp260
S'build'
p261
(dp262
S'core'
p263
S'arduino'
p264
sS'mcu'
p265
S'atmega2560'
p266
sS'f_cpu'
p267
S'16000000L'
p268
sS'variant'
p269
S'mega'
p270
ssS'bootloader'
p271
(dp272
S'extended_fuses'
p273
S'0xFD'
p274
sS'high_fuses'
p275
S'0xD8'
p276
sS'low_fuses'
p277
S'0xFF'
p278
sS'lock_bits'
p279
S'0x0F'
p280
sS'file'
p281
S'stk500boot_v2_mega2560.hex'
p282
sS'path'
p283
S'stk500v2'
p284
sS'unlock_bits'
p285
S'0x3F'
p286
ssS'upload'
p287
(dp288
S'protocol'
p289
S'stk500v2'
p290
sS'maximum_size'
p291
S'258048'
p292
sS'speed'
p293
S'115200'
p294
ssS'name'
p295
S'Arduino Mega 2560 or Mega ADK'
p296
saa(lp297
S'mega'
p298
a(dp299
S'build'
p300
(dp301
S'core'
p302
S'arduino'
p303
sS'mcu'
p304
S'atmega1280'
p305
sS'f_cpu'
p306
S'16000000L'
p307
sS'variant'
p308
S'mega'
p309
ssS'bootloader'
p310
(dp311
S'extended_fuses'
p312
S'0xF5'
p313
sS'high_fuses'
p314
S'0xDA'
p315
sS'low_fuses'
p316
S'0xFF'
p317
sS'lock_bits'
p318
S'0x0F'
p319
sS'file'
p320
S'ATmegaBOOT_168_atmega1280.hex'
p321
sS'path'
p322
S'atmega'
p323
sS'unlock_bits'
p324
S'0x3F'
p325
ssS'upload'
p326
(dp327
S'protocol'
p328
S'arduino'
p329
sS'maximum_size'
p330
S'126976'
p331
sS'speed'
p332
S'57600'
p333
ssS'name'
p334
S'Arduino Mega (ATmega1280)'
p335
saa(lp336
S'mini328'
p337
a(dp338
S'build'
p339
(dp340
S'core'
p341
S'arduino'
p342
sS'mcu'
p343
S'atmega328p'
p344
sS'f_cpu'
p345
S'16000000L'
p346
sS'variant'
p347
S'eightanaloginputs'
p348
ssS'bootloader'
p349
(dp350
S'extended_fuses'
p351
S'0x05'
p352
sS'high_fuses'
p353
S'0xd8'
p354
sS'low_fuses'
p355
S'0xff'
p356
sS'lock_bits'
p357
S'0x0F'
p358
sS'file'
p359
S'optiboot_atmega328-Mini.hex'
p360
sS'path'
p361
S'optiboot'
p362
sS'unlock_bits'
p363
S'0x3F'
p364
ssS'upload'
p365
(dp366
S'protocol'
p367
S'stk500'
p368
sS'maximum_size'
p369
S'28672'
p370
sS'speed'
p371
S'115200'
p372
ssS'name'
p373
S'Arduino Mini w/ ATmega328'
p374
saa(lp375
S'mini'
p376
a(dp377
S'build'
p378
(dp379
S'core'
p380
S'arduino'
p381
sS'mcu'
p382
S'atmega168'
p383
sS'f_cpu'
p384
S'16000000L'
p385
sS'variant'
p386
S'eightanaloginputs'
p387
ssS'bootloader'
p388
(dp389
S'extended_fuses'
p390
S'0x00'
p391
sS'high_fuses'
p392
S'0xdd'
p393
sS'low_fuses'
p394
S'0xff'
p395
sS'lock_bits'
p396
S'0x0F'
p397
sS'file'
p398
S'ATmegaBOOT_168_ng.hex'
p399
sS'path'
p400
S'atmega'
p401
sS'unlock_bits'
p402
S'0x3F'
p403
ssS'upload'
p404
(dp405
S'protocol'
p406
S'arduino'
p407
sS'maximum_size'
p408
S'14336'
p409
sS'speed'
p410
S'19200'
p411
ssS'name'
p412
S'Arduino Mini w/ ATmega168'
p413
saa(lp414
S'ethernet'
p415
a(dp416
S'build'
p417
(dp418
S'variant'
p419
S'standard'
p420
sS'mcu'
p421
S'atmega328p'
p422
sS'f_cpu'
p423
S'16000000L'
p424
sS'core'
p425
S'arduino'
p426
ssS'bootloader'
p427
(dp428
S'extended_fuses'
p429
S'0x05'
p430
sS'high_fuses'
p431
S'0xde'
p432
sS'low_fuses'
p433
S'0xff'
p434
sS'lock_bits'
p435
S'0x0F'
p436
sS'file'
p437
S'optiboot_atmega328.hex'
p438
sS'path'
p439
S'optiboot'
p440
sS'unlock_bits'
p441
S'0x3F'
p442
ssS'upload'
p443
(dp444
S'protocol'
p445
S'arduino'
p446
sS'maximum_size'
p447
S'32256'
p448
sS'speed'
p449
S'115200'
p450
ssS'name'
p451
S'Arduino Ethernet'
p452
saa(lp453
S'fio'
p454
a(dp455
S'build'
p456
(dp457
S'core'
p458
S'arduino'
p459
sS'mcu'
p460
S'atmega328p'
p461
sS'f_cpu'
p462
S'8000000L'
p463
sS'variant'
p464
S'eightanaloginputs'
p465
ssS'bootloader'
p466
(dp467
S'extended_fuses'
p468
S'0x05'
p469
sS'high_fuses'
p470
S'0xDA'
p471
sS'low_fuses'
p472
S'0xFF'
p473
sS'lock_bits'
p474
S'0x0F'
p475
sS'file'
p476
S'ATmegaBOOT_168_atmega328_pro_8MHz.hex'
p477
sS'path'
p478
S'arduino:atmega'
p479
sS'unlock_bits'
p480
S'0x3F'
p481
ssS'upload'
p482
(dp483
S'protocol'
p484
S'arduino'
p485
sS'maximum_size'
p486
S'30720'
p487
sS'speed'
p488
S'57600'
p489
ssS'name'
p490
S'Arduino Fio'
p491
saa(lp492
S'bt328'
p493
a(dp494
S'build'
p495
(dp496
S'core'
p497
S'arduino'
p498
sS'mcu'
p499
S'atmega328p'
p500
sS'f_cpu'
p501
S'16000000L'
p502
sS'variant'
p503
S'eightanaloginputs'
p504
ssS'bootloader'
p505
(dp506
S'extended_fuses'
p507
S'0x05'
p508
sS'high_fuses'
p509
S'0xd8'
p510
sS'low_fuses'
p511
S'0xff'
p512
sS'lock_bits'
p513
S'0x0F'
p514
sS'file'
p515
S'ATmegaBOOT_168_atmega328_bt.hex'
p516
sS'path'
p517
S'bt'
p518
sS'unlock_bits'
p519
S'0x3F'
p520
ssS'upload'
p521
(dp522
S'protocol'
p523
S'arduino'
p524
sS'maximum_size'
p525
S'28672'
p526
sS'speed'
p527
S'19200'
p528
sS'disable_flushing'
p529
S'true'
p530
ssS'name'
p531
S'Arduino BT w/ ATmega328'
p532
saa(lp533
S'bt'
p534
a(dp535
S'build'
p536
(dp537
S'core'
p538
S'arduino'
p539
sS'mcu'
p540
S'atmega168'
p541
sS'f_cpu'
p542
S'16000000L'
p543
sS'variant'
p544
S'eightanaloginputs'
p545
ssS'bootloader'
p546
(dp547
S'extended_fuses'
p548
S'0x00'
p549
sS'high_fuses'
p550
S'0xdd'
p551
sS'low_fuses'
p552
S'0xff'
p553
sS'lock_bits'
p554
S'0x0F'
p555
sS'file'
p556
S'ATmegaBOOT_168.hex'
p557
sS'path'
p558
S'bt'
p559
sS'unlock_bits'
p560
S'0x3F'
p561
ssS'upload'
p562
(dp563
S'protocol'
p564
S'arduino'
p565
sS'maximum_size'
p566
S'14336'
p567
sS'speed'
p568
S'19200'
p569
sS'disable_flushing'
p570
S'true'
p571
ssS'name'
p572
S'Arduino BT w/ ATmega168'
p573
saa(lp574
S'lilypad328'
p575
a(dp576
S'build'
p577
(dp578
S'core'
p579
S'arduino'
p580
sS'mcu'
p581
S'atmega328p'
p582
sS'f_cpu'
p583
S'8000000L'
p584
sS'variant'
p585
S'standard'
p586
ssS'bootloader'
p587
(dp588
S'extended_fuses'
p589
S'0x05'
p590
sS'high_fuses'
p591
S'0xDA'
p592
sS'low_fuses'
p593
S'0xFF'
p594
sS'lock_bits'
p595
S'0x0F'
p596
sS'file'
p597
S'ATmegaBOOT_168_atmega328_pro_8MHz.hex'
p598
sS'path'
p599
S'atmega'
p600
sS'unlock_bits'
p601
S'0x3F'
p602
ssS'upload'
p603
(dp604
S'protocol'
p605
S'arduino'
p606
sS'maximum_size'
p607
S'30720'
p608
sS'speed'
p609
S'57600'
p610
ssS'name'
p611
S'LilyPad Arduino w/ ATmega328'
p612
saa(lp613
S'lilypad'
p614
a(dp615
S'build'
p616
(dp617
S'core'
p618
S'arduino'
p619
sS'mcu'
p620
S'atmega168'
p621
sS'f_cpu'
p622
S'8000000L'
p623
sS'variant'
p624
S'standard'
p625
ssS'bootloader'
p626
(dp627
S'extended_fuses'
p628
S'0x00'
p629
sS'high_fuses'
p630
S'0xdd'
p631
sS'low_fuses'
p632
S'0xe2'
p633
sS'lock_bits'
p634
S'0x0F'
p635
sS'file'
p636
S'LilyPadBOOT_168.hex'
p637
sS'path'
p638
S'lilypad'
p639
sS'unlock_bits'
p640
S'0x3F'
p641
ssS'upload'
p642
(dp643
S'protocol'
p644
S'arduino'
p645
sS'maximum_size'
p646
S'14336'
p647
sS'speed'
p648
S'19200'
p649
ssS'name'
p650
S'LilyPad Arduino w/ ATmega168'
p651
saa(lp652
S'pro5v328'
p653
a(dp654
S'build'
p655
(dp656
S'core'
p657
S'arduino'
p658
sS'mcu'
p659
S'atmega328p'
p660
sS'f_cpu'
p661
S'16000000L'
p662
sS'variant'
p663
S'standard'
p664
ssS'bootloader'
p665
(dp666
S'extended_fuses'
p667
S'0x05'
p668
sS'high_fuses'
p669
S'0xDA'
p670
sS'low_fuses'
p671
S'0xFF'
p672
sS'lock_bits'
p673
S'0x0F'
p674
sS'file'
p675
S'ATmegaBOOT_168_atmega328.hex'
p676
sS'path'
p677
S'atmega'
p678
sS'unlock_bits'
p679
S'0x3F'
p680
ssS'upload'
p681
(dp682
S'protocol'
p683
S'arduino'
p684
sS'maximum_size'
p685
S'30720'
p686
sS'speed'
p687
S'57600'
p688
ssS'name'
p689
S'Arduino Pro or Pro Mini (5V, 16 MHz) w/ ATmega328'
p690
saa(lp691
S'pro5v'
p692
a(dp693
S'build'
p694
(dp695
S'core'
p696
S'arduino'
p697
sS'mcu'
p698
S'atmega168'
p699
sS'f_cpu'
p700
S'16000000L'
p701
sS'variant'
p702
S'standard'
p703
ssS'bootloader'
p704
(dp705
S'extended_fuses'
p706
S'0x00'
p707
sS'high_fuses'
p708
S'0xdd'
p709
sS'low_fuses'
p710
S'0xff'
p711
sS'lock_bits'
p712
S'0x0F'
p713
sS'file'
p714
S'ATmegaBOOT_168_diecimila.hex'
p715
sS'path'
p716
S'atmega'
p717
sS'unlock_bits'
p718
S'0x3F'
p719
ssS'upload'
p720
(dp721
S'protocol'
p722
S'arduino'
p723
sS'maximum_size'
p724
S'14336'
p725
sS'speed'
p726
S'19200'
p727
ssS'name'
p728
S'Arduino Pro or Pro Mini (5V, 16 MHz) w/ ATmega168'
p729
saa(lp730
S'pro328'
p731
a(dp732
S'build'
p733
(dp734
S'core'
p735
S'arduino'
p736
sS'mcu'
p737
S'atmega328p'
p738
sS'f_cpu'
p739
S'8000000L'
p740
sS'variant'
p741
S'standard'
p742
ssS'bootloader'
p743
(dp744
S'extended_fuses'
p745
S'0x05'
p746
sS'high_fuses'
p747
S'0xDA'
p748
sS'low_fuses'
p749
S'0xFF'
p750
sS'lock_bits'
p751
S'0x0F'
p752
sS'file'
p753
S'ATmegaBOOT_168_atmega328_pro_8MHz.hex'
p754
sS'path'
p755
S'atmega'
p756
sS'unlock_bits'
p757
S'0x3F'
p758
ssS'upload'
p759
(dp760
S'protocol'
p761
S'arduino'
p762
sS'maximum_size'
p763
S'30720'
p764
sS'speed'
p765
S'57600'
p766
ssS'name'
p767
S'Arduino Pro or Pro Mini (3.3V, 8 MHz) w/ ATmega328'
p768
saa(lp769
S'pro'
p770
a(dp771
S'build'
p772
(dp773
S'core'
p774
S'arduino'
p775
sS'mcu'
p776
S'atmega168'
p777
sS'f_cpu'
p778
S'8000000L'
p779
sS'variant'
p780
S'standard'
p781
ssS'bootloader'
p782
(dp783
S'extended_fuses'
p784
S'0x00'
p785
sS'high_fuses'
p786
S'0xdd'
p787
sS'low_fuses'
p788
S'0xc6'
p789
sS'lock_bits'
p790
S'0x0F'
p791
sS'file'
p792
S'ATmegaBOOT_168_pro_8MHz.hex'
p793
sS'path'
p794
S'atmega'
p795
sS'unlock_bits'
p796
S'0x3F'
p797
ssS'upload'
p798
(dp799
S'protocol'
p800
S'arduino'
p801
sS'maximum_size'
p802
S'14336'
p803
sS'speed'
p804
S'19200'
p805
ssS'name'
p806
S'Arduino Pro or Pro Mini (3.3V, 8 MHz) w/ ATmega168'
p807
saa(lp808
S'atmega168'
p809
a(dp810
S'build'
p811
(dp812
S'core'
p813
S'arduino'
p814
sS'mcu'
p815
S'atmega168'
p816
sS'f_cpu'
p817
S'16000000L'
p818
sS'variant'
p819
S'standard'
p820
ssS'bootloader'
p821
(dp822
S'extended_fuses'
p823
S'0x00'
p824
sS'high_fuses'
p825
S'0xdd'
p826
sS'low_fuses'
p827
S'0xff'
p828
sS'lock_bits'
p829
S'0x0F'
p830
sS'file'
p831
S'ATmegaBOOT_168_ng.hex'
p832
sS'path'
p833
S'atmega'
p834
sS'unlock_bits'
p835
S'0x3F'
p836
ssS'upload'
p837
(dp838
S'protocol'
p839
S'arduino'
p840
sS'maximum_size'
p841
S'14336'
p842
sS'speed'
p843
S'19200'
p844
ssS'name'
p845
S'Arduino NG or older w/ ATmega168'
p846
saa(lp847
S'atmega8'
p848
a(dp849
S'build'
p850
(dp851
S'core'
p852
S'arduino'
p853
sS'mcu'
p854
S'atmega8'
p855
sS'f_cpu'
p856
S'16000000L'
p857
sS'variant'
p858
S'standard'
p859
ssS'bootloader'
p860
(dp861
S'high_fuses'
p862
S'0xca'
p863
sS'low_fuses'
p864
S'0xdf'
p865
sS'lock_bits'
p866
S'0x0F'
p867
sS'file'
p868
S'ATmegaBOOT.hex'
p869
sS'path'
p870
S'atmega8'
p871
sS'unlock_bits'
p872
S'0x3F'
p873
ssS'upload'
p874
(dp875
S'protocol'
p876
S'arduino'
p877
sS'maximum_size'
p878
S'7168'
p879
sS'speed'
p880
S'19200'
p881
ssS'name'
p882
S'Arduino NG or older w/ ATmega8'
p883
saatp884
Rp885
(dp886
S'default'
p887
S'uno'
p888
sbtp889
a(S'used_libs'
p890
(lp891
S'/usr/share/arduino/hardware/arduino/cores/arduino'
p892
atp893
a(S'make'
p894
S'/usr/bin/make'
p895
tp896
a(S'arduino_libraries_dir'
p897
S'/usr/share/arduino/libraries'
p898
tp899
a(S'cc'
p900
S'/usr/bin/avr-gcc'
p901
tp902
a(S'cflags'
p903
g2
(g3
g4
(lp904
tp905
Rp906
tp907
a(S'cxxflags'
p908
g2
(g3
g4
(lp909
S'-fno-exceptions'
p910
atp911
Rp912
tp913
a(S'arduino_variants_dir'
p914
S'/usr/share/arduino/hardware/arduino/variants'
p915
tp916
a(S'serial'
p917
S'/usr/bin/picocom'
p918
tp919
a(S'stty'
p920
S'/bin/stty'
p921
tp922
a(S'version.txt'
p923
S'/usr/share/arduino/lib/version.txt'
p924
tp925
a(S'arduino_core_dir'
p926
g892
tp927
a(S'boards.txt'
p928
S'/usr/share/arduino/hardware/arduino/boards.txt'
p929
tp930
a(S'avrdude.conf'
p931
S'/usr/share/arduino/hardware/tools/avrdude.conf'
p932
tp933
a(S'deps'
p934
g2
(g3
g4
(lp935
S'.build/uno/src/dependencies.d'
p936
aS'.build/uno/arduino/dependencies.d'
p937
atp938
Rp939
tp940
a.